; Function Attrs: nounwind uwtable
define internal i32 @lsarpc_dissect_element_lsa_LookupNames3_names_X(ptr noundef %0, i32 noundef %1, ptr noundef %2, ptr noundef %3, ptr noundef %4, ptr noundef %5) #0 {
  %.not = icmp eq ptr %3, null
  br i1 %.not, label %12, label %7

7:                                                ; preds = %6
  %8 = load i32, ptr @hf_lsarpc_names, align 4
  %9 = tail call ptr @proto_tree_add_item(ptr noundef nonnull %3, i32 noundef %8, ptr noundef %0, i32 noundef %1, i32 noundef -1, i32 noundef 0) #5
  %10 = load i32, ptr @ett_lsarpc_names, align 4
  %11 = tail call ptr @proto_item_add_subtree(ptr noundef %9, i32 noundef %10) #5
  br label %12

12:                                               ; preds = %7, %6
  %.015 = phi ptr [ %9, %7 ], [ null, %6 ]
  %.0 = phi ptr [ %11, %7 ], [ null, %6 ]
  %13 = tail call i32 @dissect_ndr_ucarray(ptr noundef %0, i32 noundef %1, ptr noundef %2, ptr noundef %.0, ptr noundef %4, ptr noundef %5, ptr noundef nonnull @lsarpc_dissect_element_lsa_LookupNames3_names_) #5
  %14 = sub i32 %13, %1
  tail call void @proto_item_set_len(ptr noundef %.015, i32 noundef %14) #5
  ret i32 %13
}